target datalayout = "e-m:e-p270:32:32-p271:32:32-p272:64:64-i64:64-i128:128-f80:128-n8:16:32:64-S128"
target triple = "x86_64-pc-linux-gnu"

%struct.archive_string = type { ptr, i64, i64 }
%struct.archive_rb_node = type { [2 x ptr], i64 }
%struct.isofile = type { ptr, ptr, ptr, ptr, ptr, %struct.archive_string, %struct.archive_string, %struct.archive_string, %struct.archive_string, i32, %struct.content, ptr, i32, i32, %struct.anon.7 }
%struct.content = type { i64, i64, i32, i32, ptr }
%struct.anon.7 = type { i8, i8, i32 }
%struct.hardlink = type { %struct.archive_rb_node, i32, %struct.anon.8 }
%struct.anon.8 = type { ptr, ptr }

; Function Attrs: nounwind uwtable
define internal i32 @isofile_hd_cmp_node(ptr noundef %0, ptr noundef %1) #0 {
  %3 = alloca ptr, align 8
  %4 = alloca ptr, align 8
  %5 = alloca ptr, align 8
  %6 = alloca ptr, align 8
  store ptr %0, ptr %3, align 8, !tbaa !231
  store ptr %1, ptr %4, align 8, !tbaa !231
  call void @llvm.lifetime.start.p0(i64 8, ptr %5) #13
  %7 = load ptr, ptr %3, align 8, !tbaa !231
  store ptr %7, ptr %5, align 8, !tbaa !215
  call void @llvm.lifetime.start.p0(i64 8, ptr %6) #13
  %8 = load ptr, ptr %4, align 8, !tbaa !231
  store ptr %8, ptr %6, align 8, !tbaa !215
  %9 = load ptr, ptr %5, align 8, !tbaa !215
  %10 = getelementptr inbounds nuw %struct.hardlink, ptr %9, i32 0, i32 2
  %11 = getelementptr inbounds nuw %struct.anon.8, ptr %10, i32 0, i32 0
  %12 = load ptr, ptr %11, align 8, !tbaa !220
  %13 = getelementptr inbounds nuw %struct.isofile, ptr %12, i32 0, i32 4
  %14 = load ptr, ptr %13, align 8, !tbaa !135
  %15 = call ptr @archive_entry_pathname(ptr noundef %14)
  %16 = load ptr, ptr %6, align 8, !tbaa !215
  %17 = getelementptr inbounds nuw %struct.hardlink, ptr %16, i32 0, i32 2
  %18 = getelementptr inbounds nuw %struct.anon.8, ptr %17, i32 0, i32 0
  %19 = load ptr, ptr %18, align 8, !tbaa !220
  %20 = getelementptr inbounds nuw %struct.isofile, ptr %19, i32 0, i32 4
  %21 = load ptr, ptr %20, align 8, !tbaa !135
  %22 = call ptr @archive_entry_pathname(ptr noundef %21)
  %23 = call i32 @strcmp(ptr noundef %15, ptr noundef %22) #15
  call void @llvm.lifetime.end.p0(i64 8, ptr %6) #13
  call void @llvm.lifetime.end.p0(i64 8, ptr %5) #13
  ret i32 %23
}