; Function Attrs: nounwind uwtable
define internal i32 @isofile_hd_cmp_node(ptr noundef readonly captures(none) %0, ptr noundef readonly captures(none) %1) #0 {
  %3 = getelementptr inbounds nuw i8, ptr %0, i64 32
  %4 = load ptr, ptr %3, align 8, !tbaa !179
  %5 = getelementptr inbounds nuw i8, ptr %4, i64 32
  %6 = load ptr, ptr %5, align 8, !tbaa !78
  %7 = tail call ptr @archive_entry_pathname(ptr noundef %6) #23
  %8 = getelementptr inbounds nuw i8, ptr %1, i64 32
  %9 = load ptr, ptr %8, align 8, !tbaa !179
  %10 = getelementptr inbounds nuw i8, ptr %9, i64 32
  %11 = load ptr, ptr %10, align 8, !tbaa !78
  %12 = tail call ptr @archive_entry_pathname(ptr noundef %11) #23
  %13 = tail call i32 @strcmp(ptr noundef nonnull dereferenceable(1) %7, ptr noundef nonnull dereferenceable(1) %12) #25
  ret i32 %13
}